LIBRARY "rsdc.dll"
EXPORTS
??0?$CRsdBase@PAURSDHCM__@@PAUtagIRSCmd@@PAVCRsdConnection@@@@IAE@PAVCRsdConnection@@@Z
??0?$CRsdBase@PAURSDHCN__@@PAUtagIRSCon@@PAVCRsdEnvironment@@@@IAE@PAVCRsdEnvironment@@@Z
??0?$CRsdBase@PAURSDHEN__@@PAUtagIRSEnv@@PAVCRsdEnvironment@@@@IAE@PAVCRsdEnvironment@@@Z
??0?$CRsdBase@PAURSDHRS__@@PAUtagIRSRecordSet@@PAVCRsdCommand@@@@IAE@PAVCRsdCommand@@@Z
??0?$CRsdFldBase@UtagIRSCmd@@PAURSDHCM__@@VCRsdCommand@@@@IAE@PAVCRsdCommand@@PBDW4RSDValType_t@@PAXJPAJ_N@Z
??0?$CRsdFldBase@UtagIRSCmd@@PAURSDHCM__@@VCRsdCommand@@@@QAE@ABV0@@Z
??0?$CRsdFldBase@UtagIRSRecordSet@@PAURSDHRS__@@VCRsdRecordset@@@@IAE@PAVCRsdRecordset@@PBDW4RSDValType_t@@PAXJPAJ_N@Z
??0?$CRsdFldBase@UtagIRSRecordSet@@PAURSDHRS__@@VCRsdRecordset@@@@QAE@ABV0@@Z
??0CBrother@@IAE@PAV0@@Z
??0CBrother@@QAE@ABV0@@Z
??0CRSDRGlobParms@@AAE@ABV0@@Z
??0CRSDRGlobParms@@AAE@XZ
??0CRsdAccessor@@IAE@_N@Z
??0CRsdAccessor@@QAE@ABV0@@Z
??0CRsdCommand@@QAE@AAVCRsdConnection@@PBDW4RSDCursorType_t@@J_NJ@Z
??0CRsdCommand@@QAE@ABV0@@Z
??0CRsdCommand@@QAE@XZ
??0CRsdConnection@@QAE@AAVCRsdEnvironment@@PAURSDHCN__@@@Z
??0CRsdConnection@@QAE@AAVCRsdEnvironment@@PBD11J@Z
??0CRsdConnection@@QAE@ABV0@@Z
??0CRsdConnection@@QAE@XZ
??0CRsdDynAccessor@@QAE@ABV0@@Z
??0CRsdDynAccessor@@QAE@_N@Z
??0CRsdEncBase@@IAE@XZ
??0CRsdEnvironment@@QAE@ABV0@@Z
??0CRsdEnvironment@@QAE@PAURSDHEN__@@PAUtagRSDErrorSink@@@Z
??0CRsdEnvironment@@QAE@PBD0@Z
??0CRsdEnvironment@@QAE@XZ
??0CRsdError@@QAE@AAUtagRSDErrorInfo@@@Z
??0CRsdError@@QAE@ABV0@@Z
??0CRsdError@@QAE@PBDJ00J00@Z
??0CRsdError@@QAE@XZ
??0CRsdField@@IAE@PAVCRsdRecordset@@PBDW4RSDValType_t@@PAXJPAJ@Z
??0CRsdField@@QAE@ABV0@@Z
??0CRsdFieldNumber10@@IAE@PAVCRsdRecordset@@PBDW4RSDValType_t@@PAXJPAJ@Z
??0CRsdFieldNumber10@@QAE@ABV0@@Z
??0CRsdParamAccessor@@IAE@XZ
??0CRsdParamAccessor@@QAE@ABV0@@Z
??0CRsdParameter@@IAE@PAVCRsdCommand@@PBDW4RSDValType_t@@PAXPAJJW4RSDBindParamIO_t@@_N@Z
??0CRsdParameter@@QAE@ABV0@@Z
??0CRsdRecordset@@QAE@AAVCRsdCommand@@W4RSDCursorLocation_t@@W4RSDCursorType_t@@JJ@Z
??0CRsdRecordset@@QAE@AAVCRsdConnection@@PADPAUtagRSDRSNAMEBINDING@@PAPAU2@2PAUtagRSDADVHINTS@@PAXPBD666J_NJ2@Z
??0CRsdRecordset@@QAE@ABV0@@Z
??0CRsdRecordset@@QAE@XZ
??0XRsdError@@QAE@ABV0@@Z
??0XRsdError@@QAE@W4Source@0@ABV?$basic_string@DU?$char_traits@D@std@@V?$allocator@D@2@@std@@PBVCRsdCommand@@_N@Z
??0XRsdError@@QAE@W4Source@0@ABV?$basic_string@DU?$char_traits@D@std@@V?$allocator@D@2@@std@@PBVCRsdConnection@@_N@Z
??0XRsdError@@QAE@W4Source@0@ABV?$basic_string@DU?$char_traits@D@std@@V?$allocator@D@2@@std@@PBVCRsdEnvironment@@_N@Z
??0XRsdError@@QAE@W4Source@0@ABV?$basic_string@DU?$char_traits@D@std@@V?$allocator@D@2@@std@@PBVCRsdRecordset@@_N@Z
??1?$CRsdFldBase@UtagIRSCmd@@PAURSDHCM__@@VCRsdCommand@@@@UAE@XZ
??1?$CRsdFldBase@UtagIRSRecordSet@@PAURSDHRS__@@VCRsdRecordset@@@@UAE@XZ
??1CBrother@@MAE@XZ
??1CRsdAccessor@@IAE@XZ
??1CRsdCommand@@QAE@XZ
??1CRsdConnection@@QAE@XZ
??1CRsdDynAccessor@@QAE@XZ
??1CRsdEnvironment@@QAE@XZ
??1CRsdError@@UAE@XZ
??1CRsdField@@UAE@XZ
??1CRsdFieldNumber10@@UAE@XZ
??1CRsdParamAccessor@@IAE@XZ
??1CRsdParameter@@UAE@XZ
??1CRsdRecordset@@QAE@XZ
??1XRsdError@@UAE@XZ
??4?$CRsdBase@PAURSDHCM__@@PAUtagIRSCmd@@PAVCRsdConnection@@@@QAEAAV0@ABV0@@Z
??4?$CRsdBase@PAURSDHCN__@@PAUtagIRSCon@@PAVCRsdEnvironment@@@@QAEAAV0@ABV0@@Z
??4?$CRsdBase@PAURSDHEN__@@PAUtagIRSEnv@@PAVCRsdEnvironment@@@@QAEAAV0@ABV0@@Z
??4?$CRsdBase@PAURSDHRS__@@PAUtagIRSRecordSet@@PAVCRsdCommand@@@@QAEAAV0@ABV0@@Z
??4?$CRsdFldBase@UtagIRSCmd@@PAURSDHCM__@@VCRsdCommand@@@@QAEAAV0@ABV0@@Z
??4?$CRsdFldBase@UtagIRSRecordSet@@PAURSDHRS__@@VCRsdRecordset@@@@QAEAAV0@ABV0@@Z
??4CBrother@@QAEAAV0@ABV0@@Z
??4CRSDRGlobParms@@AAEAAV0@ABV0@@Z
??4CRsdAccessor@@QAEAAV0@ABV0@@Z
??4CRsdCommand@@QAEAAV0@ABV0@@Z
??4CRsdConnection@@QAEAAV0@ABV0@@Z
??4CRsdDynAccessor@@QAEAAV0@ABV0@@Z
??4CRsdEncBase@@QAEAAV0@ABV0@@Z
??4CRsdEnvironment@@QAEAAV0@ABV0@@Z
??4CRsdError@@QAEAAV0@ABV0@@Z
??4CRsdField@@QAEAAV0@ABV0@@Z
??4CRsdFieldNumber10@@QAEAAV0@ABV0@@Z
??4CRsdParamAccessor@@QAEAAV0@ABV0@@Z
??4CRsdParameter@@QAEAAV0@ABV0@@Z
??4CRsdProperty@@QAEAAV0@ABV0@@Z
??4CRsdRecordset@@QAEAAV0@ABV0@@Z
??4XRsdError@@QAEAAV0@ABV0@@Z
??_F?$CRsdBase@PAURSDHCM__@@PAUtagIRSCmd@@PAVCRsdConnection@@@@QAEXXZ
??_F?$CRsdBase@PAURSDHCN__@@PAUtagIRSCon@@PAVCRsdEnvironment@@@@QAEXXZ
??_F?$CRsdBase@PAURSDHEN__@@PAUtagIRSEnv@@PAVCRsdEnvironment@@@@QAEXXZ
??_F?$CRsdBase@PAURSDHRS__@@PAUtagIRSRecordSet@@PAVCRsdCommand@@@@QAEXXZ
??_FCBrother@@QAEXXZ
??_FCRsdAccessor@@QAEXXZ
??_FCRsdDynAccessor@@QAEXXZ
?AddBinding@CRsdDynAccessor@@QAEHKW4RSDValType_t@@PAXJPAJ@Z
?AddError@CRsdEnvironment@@IAEXPAUtagRSDErrorInfo@@@Z
?AddNew@CRsdAccessor@@QAEXXZ
?AddNew@CRsdRecordset@@QAEX_N@Z
?AddRefBookmark@CRsdRecordset@@QAE_NPAX@Z
?AdjustCommand@CRsdRecordset@@IAEXXZ
?AdjustCommandMulti@CRsdRecordset@@IAEXXZ
?AsRSDBIGINT@?$CRsdFldBase@UtagIRSCmd@@PAURSDHCM__@@VCRsdCommand@@@@QAE_JXZ
?AsRSDBIGINT@?$CRsdFldBase@UtagIRSRecordSet@@PAURSDHRS__@@VCRsdRecordset@@@@QAE_JXZ
?AsRSDBINARY@?$CRsdFldBase@UtagIRSCmd@@PAURSDHCM__@@VCRsdCommand@@@@QAEPAXXZ
?AsRSDBINARY@?$CRsdFldBase@UtagIRSRecordSet@@PAURSDHRS__@@VCRsdRecordset@@@@QAEPAXXZ
?AsRSDBIT@?$CRsdFldBase@UtagIRSCmd@@PAURSDHCM__@@VCRsdCommand@@@@QAE_NXZ
?AsRSDBIT@?$CRsdFldBase@UtagIRSRecordSet@@PAURSDHRS__@@VCRsdRecordset@@@@QAE_NXZ
?AsRSDBYTE@?$CRsdFldBase@UtagIRSCmd@@PAURSDHCM__@@VCRsdCommand@@@@QAEEXZ
?AsRSDBYTE@?$CRsdFldBase@UtagIRSRecordSet@@PAURSDHRS__@@VCRsdRecordset@@@@QAEEXZ
?AsRSDCHAR@?$CRsdFldBase@UtagIRSCmd@@PAURSDHCM__@@VCRsdCommand@@@@QAEDXZ
?AsRSDCHAR@?$CRsdFldBase@UtagIRSRecordSet@@PAURSDHRS__@@VCRsdRecordset@@@@QAEDXZ
?AsRSDDATE@?$CRsdFldBase@UtagIRSCmd@@PAURSDHCM__@@VCRsdCommand@@@@QAE?AUbdate@@XZ
?AsRSDDATE@?$CRsdFldBase@UtagIRSRecordSet@@PAURSDHRS__@@VCRsdRecordset@@@@QAE?AUbdate@@XZ
?AsRSDDECIMAL@?$CRsdFldBase@UtagIRSCmd@@PAURSDHCM__@@VCRsdCommand@@@@QBE?AUFDecimal_t@@XZ
?AsRSDDECIMAL@?$CRsdFldBase@UtagIRSRecordSet@@PAURSDHRS__@@VCRsdRecordset@@@@QBE?AUFDecimal_t@@XZ
?AsRSDDOUBLE@?$CRsdFldBase@UtagIRSCmd@@PAURSDHCM__@@VCRsdCommand@@@@QAENXZ
?AsRSDDOUBLE@?$CRsdFldBase@UtagIRSRecordSet@@PAURSDHRS__@@VCRsdRecordset@@@@QAENXZ
?AsRSDFLOAT@?$CRsdFldBase@UtagIRSCmd@@PAURSDHCM__@@VCRsdCommand@@@@QAEMXZ
?AsRSDFLOAT@?$CRsdFldBase@UtagIRSRecordSet@@PAURSDHRS__@@VCRsdRecordset@@@@QAEMXZ
?AsRSDLONG@?$CRsdFldBase@UtagIRSCmd@@PAURSDHCM__@@VCRsdCommand@@@@QAEJXZ
?AsRSDLONG@?$CRsdFldBase@UtagIRSRecordSet@@PAURSDHRS__@@VCRsdRecordset@@@@QAEJXZ
?AsRSDLPSTR@?$CRsdFldBase@UtagIRSCmd@@PAURSDHCM__@@VCRsdCommand@@@@QAEPADXZ
?AsRSDLPSTR@?$CRsdFldBase@UtagIRSRecordSet@@PAURSDHRS__@@VCRsdRecordset@@@@QAEPADXZ
?AsRSDLPWSTR@?$CRsdFldBase@UtagIRSCmd@@PAURSDHCM__@@VCRsdCommand@@@@QAEPA_WXZ
?AsRSDLPWSTR@?$CRsdFldBase@UtagIRSRecordSet@@PAURSDHRS__@@VCRsdRecordset@@@@QAEPA_WXZ
?AsRSDNUMERIC@?$CRsdFldBase@UtagIRSCmd@@PAURSDHCM__@@VCRsdCommand@@@@QAE?AUNumeric96_t@@XZ
?AsRSDNUMERIC@?$CRsdFldBase@UtagIRSRecordSet@@PAURSDHRS__@@VCRsdRecordset@@@@QAE?AUNumeric96_t@@XZ
?AsRSDSHORT@?$CRsdFldBase@UtagIRSCmd@@PAURSDHCM__@@VCRsdCommand@@@@QAEFXZ
?AsRSDSHORT@?$CRsdFldBase@UtagIRSRecordSet@@PAURSDHRS__@@VCRsdRecordset@@@@QAEFXZ
?AsRSDTIME@?$CRsdFldBase@UtagIRSCmd@@PAURSDHCM__@@VCRsdCommand@@@@QAE?AUbtime@@XZ
?AsRSDTIME@?$CRsdFldBase@UtagIRSRecordSet@@PAURSDHRS__@@VCRsdRecordset@@@@QAE?AUbtime@@XZ
?AsRSDTIMESTAMP@?$CRsdFldBase@UtagIRSCmd@@PAURSDHCM__@@VCRsdCommand@@@@QAE?AUbtimestamp@@XZ
?AsRSDTIMESTAMP@?$CRsdFldBase@UtagIRSRecordSet@@PAURSDHRS__@@VCRsdRecordset@@@@QAE?AUbtimestamp@@XZ
?AsRSDUBIGINT@?$CRsdFldBase@UtagIRSCmd@@PAURSDHCM__@@VCRsdCommand@@@@QAE_KXZ
?AsRSDUBIGINT@?$CRsdFldBase@UtagIRSRecordSet@@PAURSDHRS__@@VCRsdRecordset@@@@QAE_KXZ
?AsRSDULONG@?$CRsdFldBase@UtagIRSCmd@@PAURSDHCM__@@VCRsdCommand@@@@QAEKXZ
?AsRSDULONG@?$CRsdFldBase@UtagIRSRecordSet@@PAURSDHRS__@@VCRsdRecordset@@@@QAEKXZ
?AsRSDUSHORT@?$CRsdFldBase@UtagIRSCmd@@PAURSDHCM__@@VCRsdCommand@@@@QAEGXZ
?AsRSDUSHORT@?$CRsdFldBase@UtagIRSRecordSet@@PAURSDHRS__@@VCRsdRecordset@@@@QAEGXZ
?CanDelete@CRsdError@@QAE_NXZ
?CancelEdit@CRsdAccessor@@QAEXXZ
?CancelEdit@CRsdRecordset@@QAEXXZ
?DecimalToDouble@@YANPAUFDecimal_t@@@Z
?Delete@CRsdAccessor@@QAEJXZ
?Delete@CRsdRecordset@@QAEJXZ
?Edit@CRsdAccessor@@QAEXXZ
?Edit@CRsdRecordset@@QAEXXZ
?EnablePassiveControl@CRsdRecordset@@QAEX_N@Z
?Find@CRsdRecordset@@QAE_NAAVCRsdNameAccessor@@W4RSDRSetFindCond@@@Z
?Find@CRsdRecordset@@QAE_NPBD@Z
?Forget@CBrother@@QAE_NXZ
?GetDriverInterface@CRsdEnvironment@@QAEPAXPBD@Z
?GetEnvironment@CRsdCommand@@QBEPAVCRsdEnvironment@@XZ
?GetEnvironment@CRsdRecordset@@UBEPAVCRsdEnvironment@@XZ
?GetFromNumeric@@YAXAAUNumeric96_t@@AAD@Z
?GetFromNumeric@@YAXAAUNumeric96_t@@AAE@Z
?GetFromNumeric@@YAXAAUNumeric96_t@@AAF@Z
?GetFromNumeric@@YAXAAUNumeric96_t@@AAG@Z
?GetFromNumeric@@YAXAAUNumeric96_t@@AAJ@Z
?GetFromNumeric@@YAXAAUNumeric96_t@@AAK@Z
?GetFromNumeric@@YAXAAUNumeric96_t@@AAM@Z
?GetFromNumeric@@YAXAAUNumeric96_t@@AAN@Z
?GetFromNumeric@@YAXAAUNumeric96_t@@AA_J@Z
?GetFromNumeric@@YAXAAUNumeric96_t@@AA_K@Z
?GetHLib@CRsdEnvironment@@QBEPAXXZ
?GetHandle@?$CRsdBase@PAURSDHCM__@@PAUtagIRSCmd@@PAVCRsdConnection@@@@QBEPAURSDHCM__@@XZ
?GetHandle@?$CRsdBase@PAURSDHCN__@@PAUtagIRSCon@@PAVCRsdEnvironment@@@@QBEPAURSDHCN__@@XZ
?GetHandle@?$CRsdBase@PAURSDHEN__@@PAUtagIRSEnv@@PAVCRsdEnvironment@@@@QBEPAURSDHEN__@@XZ
?GetHandle@?$CRsdBase@PAURSDHRS__@@PAUtagIRSRecordSet@@PAVCRsdCommand@@@@QBEPAURSDHRS__@@XZ
?GetIntf@?$CRsdBase@PAURSDHCM__@@PAUtagIRSCmd@@PAVCRsdConnection@@@@QBEPAUtagIRSCmd@@XZ
?GetIntf@?$CRsdBase@PAURSDHCN__@@PAUtagIRSCon@@PAVCRsdEnvironment@@@@QBEPAUtagIRSCon@@XZ
?GetIntf@?$CRsdBase@PAURSDHEN__@@PAUtagIRSEnv@@PAVCRsdEnvironment@@@@QBEPAUtagIRSEnv@@XZ
?GetIntf@?$CRsdBase@PAURSDHRS__@@PAUtagIRSRecordSet@@PAVCRsdCommand@@@@QBEPAUtagIRSRecordSet@@XZ
?GetMRecordsetInterface@CRsdEnvironment@@SAPAXXZ
?GetOdbcInterface@CRsdEnvironment@@QAEPAXXZ
?GetOwner@?$CRsdBase@PAURSDHCM__@@PAUtagIRSCmd@@PAVCRsdConnection@@@@QBEPAVCRsdConnection@@XZ
?GetOwner@?$CRsdBase@PAURSDHCN__@@PAUtagIRSCon@@PAVCRsdEnvironment@@@@QBEPAVCRsdEnvironment@@XZ
?GetOwner@?$CRsdBase@PAURSDHEN__@@PAUtagIRSEnv@@PAVCRsdEnvironment@@@@QBEPAVCRsdEnvironment@@XZ
?GetOwner@?$CRsdBase@PAURSDHRS__@@PAUtagIRSRecordSet@@PAVCRsdCommand@@@@QBEPAVCRsdCommand@@XZ
?GetPKInfo@CRsdRecordset@@QAEXAAV?$vector@UtagRSDRSNAMEBINDING@@V?$allocator@UtagRSDRSNAMEBINDING@@@std@@@std@@0@Z
?GetRecordsetInterface@CRsdEnvironment@@SAPAXXZ
?GetRecordsetModule@CRsdEnvironment@@SAPAXXZ
?GetSource@XRsdError@@QBE?AW4Source@1@XZ
?InsertBinding@CRsdDynAccessor@@QAEHJKW4RSDValType_t@@PAXJPAJ@Z
?IsOpened@CRsdEncBase@@QBE_NXZ
?IsSQL@XRsdError@@QBE_NXZ
?KeyFind@CRsdRecordset@@QAE_NPAXW4RSDRSetFindCond@@@Z
?Lock@CRsdRecordset@@QAEXH@Z
?MarkDeleted@CRsdError@@QAEXXZ
?PKFind@CRsdRecordset@@QAE_NPAX_N@Z
?PutData@CRsdCommand@@QAEXJ@Z
?PutData@CRsdRecordset@@QAEXJ@Z
?ReleaseBookmark@CRsdRecordset@@QAE_NPAX@Z
?Remember@CBrother@@QAE_NPAV1@@Z
?RemoveBinding@CRsdDynAccessor@@QAEXJ@Z
?SetData@CRsdAccessor@@QAEXQAJ@Z
?SetExtraInfo@?$CRsdFldBase@UtagIRSCmd@@PAURSDHCM__@@VCRsdCommand@@@@UAEXPAUtagIRSCmd@@PAURSDHCM__@@PAVCRsdCommand@@J@Z
?SetExtraInfo@?$CRsdFldBase@UtagIRSRecordSet@@PAURSDHRS__@@VCRsdRecordset@@@@UAEXPAUtagIRSRecordSet@@PAURSDHRS__@@PAVCRsdRecordset@@J@Z
?SetExtraInfo@CRsdFieldNumber10@@UAEXPAUtagIRSRecordSet@@PAURSDHRS__@@PAVCRsdRecordset@@J@Z
?SetMRecordsetInterface@CRsdEnvironment@@SAXPAX@Z
?SetOdbcInterface@CRsdEnvironment@@QAEXPAX@Z
?SetOwner@CRsdAccessor@@QAEXPAVCRsdRecordset@@@Z
?SetRecordsetInterface@CRsdEnvironment@@SAXPAX@Z
?SetRecordsetModule@CRsdEnvironment@@SAXPAX@Z
?SwitchRecordset@CRsdRecordset@@QAEXH_N@Z
?TestTable@CRsdConnection@@QAE_NPBD@Z
?Update@CRsdAccessor@@QAEJQAJ@Z
?Update@CRsdRecordset@@QAEJXZ
?_internalInit@CRsdRecordset@@IAEXXZ
?activateDeleteUserCmd@CRsdRecordset@@QAEXXZ
?activateEditUserCmd@CRsdRecordset@@QAEXXZ
?activateUserCmd@CRsdRecordset@@QAEXW4RSDCmdType_RSet_t@@@Z
?addAccessor@CRsdRecordset@@QAEXPAVCRsdAccessor@@@Z
?addAdditionalParam@CRsdRecordset@@QAEXW4RSDValType_t@@PAXJ@Z
?addField@CRsdRecordset@@QAEXPBDW4RSDValType_t@@HH@Z
?addParam@CRsdCommand@@QAEPAVCRsdParameter@@PBD0W4RSDBindParamVer_t@@W4RSDBindParamIO_t@@_N@Z
?addParam@CRsdCommand@@QAEPAVCRsdParameter@@PBDW4RSDValType_t@@PAXPAJJW4RSDBindParamIO_t@@_N@Z
?allocateBuffer@?$CRsdFldBase@UtagIRSCmd@@PAURSDHCM__@@VCRsdCommand@@@@IAEPAXI@Z
?allocateBuffer@?$CRsdFldBase@UtagIRSRecordSet@@PAURSDHRS__@@VCRsdRecordset@@@@IAEPAXI@Z
?allocateLenOrInd@?$CRsdFldBase@UtagIRSCmd@@PAURSDHCM__@@VCRsdCommand@@@@IAEPAXI@Z
?allocateLenOrInd@?$CRsdFldBase@UtagIRSRecordSet@@PAURSDHRS__@@VCRsdRecordset@@@@IAEPAXI@Z
?applyToolsWhereCond@CRsdRecordset@@QAEX_N@Z
?beginBatch@CRsdRecordset@@QAEXXZ
?beginTrans@CRsdConnection@@QAEXXZ
?cancel@CRsdCommand@@QAEXXZ
?cancel@CRsdConnection@@QAEXXZ
?cancelCurrentQuery@CRsdConnection@@QAEXXZ
?check@CRsdCommand@@QAEXJW4Source@XRsdError@@@Z
?check@CRsdEnvironment@@QAEXJW4Source@XRsdError@@@Z
?check@CRsdRecordset@@QAEXJW4Source@XRsdError@@@Z
?clear@?$CRsdFldBase@UtagIRSCmd@@PAURSDHCM__@@VCRsdCommand@@@@QAEXXZ
?clear@?$CRsdFldBase@UtagIRSRecordSet@@PAURSDHRS__@@VCRsdRecordset@@@@QAEXXZ
?clearErrors@CRsdEnvironment@@QAEXXZ
?clearParams@CRsdCommand@@QAEXXZ
?close@CRsdCommand@@QAEXXZ
?close@CRsdConnection@@QAEXXZ
?close@CRsdEnvironment@@QAEXXZ
?close@CRsdRecordset@@UAEXXZ
?closeMulti@CRsdRecordset@@MAEXXZ
?commitTrans@CRsdConnection@@QAEXXZ
?createBinding@CRsdCommand@@IAEXXZ
?createDefaultAccessor@CRsdRecordset@@QAEXXZ
?deallocateBuffer@?$CRsdFldBase@UtagIRSCmd@@PAURSDHCM__@@VCRsdCommand@@@@IAEXXZ
?deallocateBuffer@?$CRsdFldBase@UtagIRSRecordSet@@PAURSDHRS__@@VCRsdRecordset@@@@IAEXXZ
?deallocateLenOrInd@?$CRsdFldBase@UtagIRSCmd@@PAURSDHCM__@@VCRsdCommand@@@@IAEXXZ
?deallocateLenOrInd@?$CRsdFldBase@UtagIRSRecordSet@@PAURSDHRS__@@VCRsdRecordset@@@@IAEXXZ
?delAccessor@CRsdRecordset@@QAEXPAVCRsdAccessor@@@Z
?deleteParam@CRsdCommand@@QAEXH@Z
?deleteParam@CRsdCommand@@QAEXPBD@Z
?endBatch@CRsdRecordset@@QAEXXZ
?execute@CRsdCommand@@QAEJXZ
?getAdditionalParams@CRsdRecordset@@QAEXPAPAUtagRSDBINDING@@PAJ@Z
?getAllRecordsSql@CRsdRecordset@@QAEPADPAD@Z
?getAutoRefresh@CRsdRecordset@@QAE_NXZ
?getAutoTimestamp@CRsdRecordset@@QBE_NXZ
?getAutoincField@CRsdRecordset@@QAEHXZ
?getBOF@CRsdRecordset@@QAE_NXZ
?getBase@CRsdDynAccessor@@UAEPAXXZ
?getBindings@CRsdDynAccessor@@UAEPAUtagRSDRSETBINDING@@XZ
?getBlobFilename@CRsdField@@QAEXPAD@Z
?getBlobFilename@CRsdParameter@@QAEPBDXZ
?getBlobLimitSize@CRsdRecordset@@QAEHXZ
?getBlockSize@CRsdCommand@@QBEJXZ
?getBookmark@CRsdRecordset@@QAEPAXXZ
?getBrother@CBrother@@QAEPAV1@XZ
?getBufferLen@?$CRsdFldBase@UtagIRSCmd@@PAURSDHCM__@@VCRsdCommand@@@@UBEJXZ
?getBufferLen@?$CRsdFldBase@UtagIRSRecordSet@@PAURSDHRS__@@VCRsdRecordset@@@@UBEJXZ
?getBufferLen@CRsdFieldNumber10@@UBEJXZ
?getClientEncoding@CRsdEncBase@@QBE?AW4RSDEncoding_t@@XZ
?getCmdText@CRsdCommand@@QBEPBDXZ
?getCmdType@CRsdCommand@@QBE?AW4CmdType_t@@XZ
?getCode@CRsdError@@QAEJXZ
?getCommand@CRsdRecordset@@QAEPAVCRsdCommand@@XZ
?getConString@CRsdConnection@@QBEPBDXZ
?getConnection@CRsdCommand@@QBEPAVCRsdConnection@@XZ
?getCurPos@CRsdRecordset@@QBEJXZ
?getCursorLocation@CRsdRecordset@@QAE?AW4RSDCursorLocation_t@@XZ
?getCursorType@CRsdCommand@@QBE?AW4RSDCursorType_t@@XZ
?getCursorType@CRsdRecordset@@QAE?AW4RSDCursorType_t@@XZ
?getCustomConString@CRsdConnection@@QBEPBDXZ
?getDataPtr@?$CRsdFldBase@UtagIRSCmd@@PAURSDHCM__@@VCRsdCommand@@@@UBEPAXXZ
?getDataPtr@?$CRsdFldBase@UtagIRSRecordSet@@PAURSDHRS__@@VCRsdRecordset@@@@UBEPAXXZ
?getDataPtr@CRsdFieldNumber10@@UBEPAXXZ
?getDbmsName@CRsdConnection@@QAE?AV?$basic_string@DU?$char_traits@D@std@@V?$allocator@D@2@@std@@XZ
?getDepFields@CRsdRecordset@@QAEPBDXZ
?getDepTables@CRsdRecordset@@QAEPBDXZ
?getDescr@CRsdError@@QAEPBDXZ
?getDescr@CRsdError@@QBEPBDXZ
?getDirection@CRsdParameter@@QAE?AW4RSDBindParamIO_t@@XZ
?getDriver@CRsdEnvironment@@QBEPBDXZ
?getEOF@CRsdRecordset@@QAE_NXZ
?getEditMode@CRsdAccessor@@QAE?AW4RSDEDIT_MODE@@XZ
?getEnv@XRsdError@@QAEPBVCRsdEnvironment@@XZ
?getEnvironment@CRsdConnection@@QBEPAVCRsdEnvironment@@XZ
?getErrSink@CRsdEnvironment@@QAEPAUtagRSDErrorSink@@XZ
?getError@CRsdEnvironment@@QAEAAVCRsdError@@J@Z
?getErrorCount@CRsdEnvironment@@QBEJXZ
?getErrorWithoutDelete@CRsdEnvironment@@QAEAAVCRsdError@@J@Z
?getErrorWithoutDelete@CRsdEnvironment@@QBEABVCRsdError@@J@Z
?getFilter@CRsdRecordset@@QAEPBDXZ
?getFld@CRsdRecordset@@QAEAAVCRsdField@@J@Z
?getFld@CRsdRecordset@@QAEAAVCRsdField@@PBD@Z
?getFldCount@CRsdRecordset@@QBEJXZ
?getFldIndex@CRsdRecordset@@QAEJPBD@Z
?getHandle@CRsdAccessor@@QAEIXZ
?getHelpContextID@CRsdError@@QAEPBDXZ
?getHelpFile@CRsdError@@QAEPBDXZ
?getIndLenPtr@CRsdParameter@@IAEPAJXZ
?getIndex@?$CRsdFldBase@UtagIRSCmd@@PAURSDHCM__@@VCRsdCommand@@@@IBEHXZ
?getIndex@?$CRsdFldBase@UtagIRSRecordSet@@PAURSDHRS__@@VCRsdRecordset@@@@IBEHXZ
?getJoinCond@CRsdRecordset@@QAEPBDXZ
?getLen@?$CRsdFldBase@UtagIRSCmd@@PAURSDHCM__@@VCRsdCommand@@@@UBEJXZ
?getLen@?$CRsdFldBase@UtagIRSRecordSet@@PAURSDHRS__@@VCRsdRecordset@@@@UBEJXZ
?getLen@CRsdFieldNumber10@@UBEJXZ
?getLibrary@CRsdEnvironment@@QBEPBDXZ
?getLockState@CRsdRecordset@@QAE?AW4LockState_t@1@XZ
?getLockState@CRsdRecordset@@QBEJXZ
?getMaxPages@CRsdRecordset@@QAEJXZ
?getModified@?$CRsdFldBase@UtagIRSCmd@@PAURSDHCM__@@VCRsdCommand@@@@QBE_NXZ
?getModified@?$CRsdFldBase@UtagIRSRecordSet@@PAURSDHRS__@@VCRsdRecordset@@@@QBE_NXZ
?getName@?$CRsdFldBase@UtagIRSCmd@@PAURSDHCM__@@VCRsdCommand@@@@QBEPBDXZ
?getName@?$CRsdFldBase@UtagIRSRecordSet@@PAURSDHRS__@@VCRsdRecordset@@@@QBEPBDXZ
?getNativeError@CRsdError@@QAEJXZ
?getNullConversion@CRsdCommand@@QAE_NXZ
?getNullConversion@CRsdRecordset@@QAE_NXZ
?getOdbcHandle@CRsdConnection@@QAEJPAJ@Z
?getOptions@CRsdCommand@@QBEJXZ
?getOrdinal@?$CRsdFldBase@UtagIRSCmd@@PAURSDHCM__@@VCRsdCommand@@@@QBEJXZ
?getOrdinal@?$CRsdFldBase@UtagIRSRecordSet@@PAURSDHRS__@@VCRsdRecordset@@@@QBEJXZ
?getPageSize@CRsdRecordset@@QAEJXZ
?getParam@CRsdCommand@@QAEAAVCRsdParameter@@J@Z
?getParam@CRsdCommand@@QAEAAVCRsdParameter@@PBD@Z
?getParamArraySize@CRsdCommand@@QAEIXZ
?getParamCount@CRsdCommand@@QBEJXZ
?getParamIndex@CRsdCommand@@QAEJPBD@Z
?getParamIndexEx@CRsdCommand@@QAEJPBD@Z
?getPassword@CRsdConnection@@QBEPBDXZ
?getPrepared@CRsdCommand@@QBE_NXZ
?getReadOnly@?$CRsdFldBase@UtagIRSCmd@@PAURSDHCM__@@VCRsdCommand@@@@QBE_NXZ
?getReadOnly@?$CRsdFldBase@UtagIRSRecordSet@@PAURSDHRS__@@VCRsdRecordset@@@@QBE_NXZ
?getRecCount@CRsdRecordset@@QAEKXZ
?getRecsAffected@CRsdCommand@@QAEJXZ
?getRepairUpdatedCacheFieldsNullData@CRsdRecordset@@QAE_NXZ
?getRsdType@?$CRsdFldBase@UtagIRSCmd@@PAURSDHCM__@@VCRsdCommand@@@@SA?AW4RSDValType_t@@AAD@Z
?getRsdType@?$CRsdFldBase@UtagIRSCmd@@PAURSDHCM__@@VCRsdCommand@@@@SA?AW4RSDValType_t@@AAE@Z
?getRsdType@?$CRsdFldBase@UtagIRSCmd@@PAURSDHCM__@@VCRsdCommand@@@@SA?AW4RSDValType_t@@AAF@Z
?getRsdType@?$CRsdFldBase@UtagIRSCmd@@PAURSDHCM__@@VCRsdCommand@@@@SA?AW4RSDValType_t@@AAG@Z
?getRsdType@?$CRsdFldBase@UtagIRSCmd@@PAURSDHCM__@@VCRsdCommand@@@@SA?AW4RSDValType_t@@AAJ@Z
?getRsdType@?$CRsdFldBase@UtagIRSCmd@@PAURSDHCM__@@VCRsdCommand@@@@SA?AW4RSDValType_t@@AAK@Z
?getRsdType@?$CRsdFldBase@UtagIRSCmd@@PAURSDHCM__@@VCRsdCommand@@@@SA?AW4RSDValType_t@@AAM@Z
?getRsdType@?$CRsdFldBase@UtagIRSCmd@@PAURSDHCM__@@VCRsdCommand@@@@SA?AW4RSDValType_t@@AAN@Z
?getRsdType@?$CRsdFldBase@UtagIRSCmd@@PAURSDHCM__@@VCRsdCommand@@@@SA?AW4RSDValType_t@@AAUFDecimal_t@@@Z
?getRsdType@?$CRsdFldBase@UtagIRSCmd@@PAURSDHCM__@@VCRsdCommand@@@@SA?AW4RSDValType_t@@AAUNumeric96_t@@@Z
?getRsdType@?$CRsdFldBase@UtagIRSCmd@@PAURSDHCM__@@VCRsdCommand@@@@SA?AW4RSDValType_t@@AAUbdate@@@Z
?getRsdType@?$CRsdFldBase@UtagIRSCmd@@PAURSDHCM__@@VCRsdCommand@@@@SA?AW4RSDValType_t@@AAUbtime@@@Z
?getRsdType@?$CRsdFldBase@UtagIRSCmd@@PAURSDHCM__@@VCRsdCommand@@@@SA?AW4RSDValType_t@@AAUbtimestamp@@@Z
?getRsdType@?$CRsdFldBase@UtagIRSCmd@@PAURSDHCM__@@VCRsdCommand@@@@SA?AW4RSDValType_t@@AA_J@Z
?getRsdType@?$CRsdFldBase@UtagIRSCmd@@PAURSDHCM__@@VCRsdCommand@@@@SA?AW4RSDValType_t@@AA_K@Z
?getRsdType@?$CRsdFldBase@UtagIRSCmd@@PAURSDHCM__@@VCRsdCommand@@@@SA?AW4RSDValType_t@@AA_N@Z
?getRsdType@?$CRsdFldBase@UtagIRSCmd@@PAURSDHCM__@@VCRsdCommand@@@@SA?AW4RSDValType_t@@PAD@Z
?getRsdType@?$CRsdFldBase@UtagIRSCmd@@PAURSDHCM__@@VCRsdCommand@@@@SA?AW4RSDValType_t@@PAX@Z
?getRsdType@?$CRsdFldBase@UtagIRSCmd@@PAURSDHCM__@@VCRsdCommand@@@@SA?AW4RSDValType_t@@PA_W@Z
?getRsdType@?$CRsdFldBase@UtagIRSRecordSet@@PAURSDHRS__@@VCRsdRecordset@@@@SA?AW4RSDValType_t@@AAD@Z
?getRsdType@?$CRsdFldBase@UtagIRSRecordSet@@PAURSDHRS__@@VCRsdRecordset@@@@SA?AW4RSDValType_t@@AAE@Z
?getRsdType@?$CRsdFldBase@UtagIRSRecordSet@@PAURSDHRS__@@VCRsdRecordset@@@@SA?AW4RSDValType_t@@AAF@Z
?getRsdType@?$CRsdFldBase@UtagIRSRecordSet@@PAURSDHRS__@@VCRsdRecordset@@@@SA?AW4RSDValType_t@@AAG@Z
?getRsdType@?$CRsdFldBase@UtagIRSRecordSet@@PAURSDHRS__@@VCRsdRecordset@@@@SA?AW4RSDValType_t@@AAJ@Z
?getRsdType@?$CRsdFldBase@UtagIRSRecordSet@@PAURSDHRS__@@VCRsdRecordset@@@@SA?AW4RSDValType_t@@AAK@Z
?getRsdType@?$CRsdFldBase@UtagIRSRecordSet@@PAURSDHRS__@@VCRsdRecordset@@@@SA?AW4RSDValType_t@@AAM@Z
?getRsdType@?$CRsdFldBase@UtagIRSRecordSet@@PAURSDHRS__@@VCRsdRecordset@@@@SA?AW4RSDValType_t@@AAN@Z
?getRsdType@?$CRsdFldBase@UtagIRSRecordSet@@PAURSDHRS__@@VCRsdRecordset@@@@SA?AW4RSDValType_t@@AAUFDecimal_t@@@Z
?getRsdType@?$CRsdFldBase@UtagIRSRecordSet@@PAURSDHRS__@@VCRsdRecordset@@@@SA?AW4RSDValType_t@@AAUNumeric96_t@@@Z
?getRsdType@?$CRsdFldBase@UtagIRSRecordSet@@PAURSDHRS__@@VCRsdRecordset@@@@SA?AW4RSDValType_t@@AAUbdate@@@Z
?getRsdType@?$CRsdFldBase@UtagIRSRecordSet@@PAURSDHRS__@@VCRsdRecordset@@@@SA?AW4RSDValType_t@@AAUbtime@@@Z
?getRsdType@?$CRsdFldBase@UtagIRSRecordSet@@PAURSDHRS__@@VCRsdRecordset@@@@SA?AW4RSDValType_t@@AAUbtimestamp@@@Z
?getRsdType@?$CRsdFldBase@UtagIRSRecordSet@@PAURSDHRS__@@VCRsdRecordset@@@@SA?AW4RSDValType_t@@AA_J@Z
?getRsdType@?$CRsdFldBase@UtagIRSRecordSet@@PAURSDHRS__@@VCRsdRecordset@@@@SA?AW4RSDValType_t@@AA_K@Z
?getRsdType@?$CRsdFldBase@UtagIRSRecordSet@@PAURSDHRS__@@VCRsdRecordset@@@@SA?AW4RSDValType_t@@AA_N@Z
?getRsdType@?$CRsdFldBase@UtagIRSRecordSet@@PAURSDHRS__@@VCRsdRecordset@@@@SA?AW4RSDValType_t@@PAD@Z
?getRsdType@?$CRsdFldBase@UtagIRSRecordSet@@PAURSDHRS__@@VCRsdRecordset@@@@SA?AW4RSDValType_t@@PAX@Z
?getRsdType@?$CRsdFldBase@UtagIRSRecordSet@@PAURSDHRS__@@VCRsdRecordset@@@@SA?AW4RSDValType_t@@PA_W@Z
?getRsdTypeSize@?$CRsdFldBase@UtagIRSCmd@@PAURSDHCM__@@VCRsdCommand@@@@SAIW4RSDValType_t@@J@Z
?getRsdTypeSize@?$CRsdFldBase@UtagIRSRecordSet@@PAURSDHRS__@@VCRsdRecordset@@@@SAIW4RSDValType_t@@J@Z
?getSQLState@CRsdError@@QAEPBDXZ
?getSequenceName@CRsdRecordset@@QAEPBDXZ
?getServerEncoding@CRsdEncBase@@QBE?AW4RSDEncoding_t@@XZ
?getSortString@CRsdRecordset@@QAEPBDXZ
?getSortStringEx@CRsdRecordset@@QAE?AV?$basic_string@DU?$char_traits@D@std@@V?$allocator@D@2@@std@@XZ
?getSource@CRsdError@@QAEPBDXZ
?getSpecField@CRsdRecordset@@QAEJH@Z
?getState@CRsdCommand@@QBEJXZ
?getState@CRsdConnection@@QBEJXZ
?getState@CRsdEnvironment@@QBEJXZ
?getState@CRsdRecordset@@QBEJXZ
?getStatus@?$CRsdFldBase@UtagIRSCmd@@PAURSDHCM__@@VCRsdCommand@@@@QBEJXZ
?getStatus@?$CRsdFldBase@UtagIRSRecordSet@@PAURSDHRS__@@VCRsdRecordset@@@@QBEJXZ
?getStatus@CRsdRecordset@@QBEJXZ
?getStatusPtr@?$CRsdFldBase@UtagIRSCmd@@PAURSDHCM__@@VCRsdCommand@@@@QAEPAJXZ
?getStatusPtr@?$CRsdFldBase@UtagIRSRecordSet@@PAURSDHRS__@@VCRsdRecordset@@@@QAEPAJXZ
?getTableName@CRsdRecordset@@QAEPBDPAD@Z
?getTimeout@CRsdCommand@@QBEJXZ
?getTimeout@CRsdConnection@@QBEJXZ
?getToolsWhereCond@CRsdRecordset@@QAEPBDXZ
?getType@?$CRsdFldBase@UtagIRSCmd@@PAURSDHCM__@@VCRsdCommand@@@@UBE?AW4RSDValType_t@@XZ
?getType@?$CRsdFldBase@UtagIRSRecordSet@@PAURSDHRS__@@VCRsdRecordset@@@@UBE?AW4RSDValType_t@@XZ
?getType@CRsdFieldNumber10@@UBE?AW4RSDValType_t@@XZ
?getUser@CRsdConnection@@QBEPBDXZ
?getUserCmd@CRsdRecordset@@QAEPAVCRsdCommand@@W4RSDCmdType_RSet_t@@@Z
?getVal@?$CRsdFldBase@UtagIRSCmd@@PAURSDHCM__@@VCRsdCommand@@@@QBEJPAXJ@Z
?getVal@?$CRsdFldBase@UtagIRSRecordSet@@PAURSDHRS__@@VCRsdRecordset@@@@QBEJPAXJ@Z
?getValName@CRsdParameter@@QAEPBDXZ
?getValPtr@?$CRsdFldBase@UtagIRSCmd@@PAURSDHCM__@@VCRsdCommand@@@@UBEPAXXZ
?getValPtr@?$CRsdFldBase@UtagIRSRecordSet@@PAURSDHRS__@@VCRsdRecordset@@@@UBEPAXXZ
?getValPtr@CRsdFieldNumber10@@UBEPAXXZ
?getValueLen@?$CRsdFldBase@UtagIRSCmd@@PAURSDHCM__@@VCRsdCommand@@@@UBEJXZ
?getValueLen@?$CRsdFldBase@UtagIRSRecordSet@@PAURSDHRS__@@VCRsdRecordset@@@@UBEJXZ
?getValueLen@CRsdFieldNumber10@@UBEJXZ
?getVersion@CRsdParameter@@QAE?AW4RSDBindParamVer_t@@XZ
?getWhereCond@CRsdRecordset@@QAEPBDXZ
?ifWasFirstMove@CRsdRecordset@@QAE_NXZ
?initFieldData@?$CRsdFldBase@UtagIRSCmd@@PAURSDHCM__@@VCRsdCommand@@@@IAEXW4RSDValType_t@@PAXJPAJI_N@Z
?initFieldData@?$CRsdFldBase@UtagIRSRecordSet@@PAURSDHRS__@@VCRsdRecordset@@@@IAEXW4RSDValType_t@@PAXJPAJI_N@Z
?insertParam@CRsdCommand@@QAEPAVCRsdParameter@@JPBDW4RSDValType_t@@PAXPAJJW4RSDBindParamIO_t@@_N@Z
?inst@CRSDRGlobParms@@SAAAV1@XZ
?isInTrans@CRsdConnection@@QAE_NXZ
?isNull@?$CRsdFldBase@UtagIRSCmd@@PAURSDHCM__@@VCRsdCommand@@@@QBE_NXZ
?isNull@?$CRsdFldBase@UtagIRSRecordSet@@PAURSDHRS__@@VCRsdRecordset@@@@QBE_NXZ
?isTrunc@?$CRsdFldBase@UtagIRSCmd@@PAURSDHCM__@@VCRsdCommand@@@@QBE_NXZ
?isTrunc@?$CRsdFldBase@UtagIRSRecordSet@@PAURSDHRS__@@VCRsdRecordset@@@@QBE_NXZ
?isUnicodeField@?$CRsdFldBase@UtagIRSCmd@@PAURSDHCM__@@VCRsdCommand@@@@QAE_NXZ
?isUnicodeField@?$CRsdFldBase@UtagIRSRecordSet@@PAURSDHRS__@@VCRsdRecordset@@@@QAE_NXZ
?make_CRsdField@CRsdRecordset@@IAEPAVCRsdField@@PAV1@PBDW4RSDValType_t@@PAXJPAJJ@Z
?makeopen@CRsdCommand@@QAEXXZ
?makeopen@CRsdConnection@@IAEXXZ
?makeopen@CRsdEnvironment@@IAEXXZ
?makeopen@CRsdRecordset@@UAEXXZ
?makeopenMulti@CRsdRecordset@@IAEXXZ
?moreResults@CRsdRecordset@@QAE_NXZ
?move@CRsdRecordset@@QAE_NJW4RSDOrientation_t@@@Z
?moveFirst@CRsdRecordset@@QAE_NXZ
?moveFirstMulti@CRsdRecordset@@IAE_NXZ
?moveLast@CRsdRecordset@@QAE_NXZ
?moveLastMulti@CRsdRecordset@@IAE_NXZ
?moveMulti@CRsdRecordset@@IAE_NJW4RSDOrientation_t@@@Z
?moveNext@CRsdRecordset@@QAE_NXZ
?movePrev@CRsdRecordset@@QAE_NXZ
?movePrevMulti@CRsdRecordset@@IAE_NXZ
?moveToBookmark@CRsdRecordset@@QAE_NPAX@Z
?open@CRsdConnection@@QAEXXZ
?open@CRsdEnvironment@@QAEXXZ
?open@CRsdRecordset@@QAEXXZ
?pAddError@CRsdEnvironment@@KAXPAUtagRSDErrorSink@@PAUtagRSDErrorInfo@@@Z
?reInitParmType@CRsdParameter@@QAEXW4RSDValType_t@@PAXJPAJ_N@Z
?read@CRsdField@@QAEJPAXJ@Z
?rebind@CRsdCommand@@QAEXXZ
?refresh@CRsdRecordset@@QAEXXZ
?refreshParams@CRsdCommand@@QAEXXZ
?refreshRecord@CRsdRecordset@@QAEXXZ
?reset@CRsdCommand@@QAEXXZ
?reset@CRsdRecordset@@QAEXXZ
?resetAdditionalParams@CRsdRecordset@@QAEXXZ
?rollbackTrans@CRsdConnection@@QAEXXZ
?setAutoRefresh@CRsdRecordset@@QAEX_N@Z
?setAutoTimestamp@CRsdRecordset@@QAEX_N@Z
?setAutoincField@CRsdRecordset@@QAE_NH@Z
?setAutoincField@CRsdRecordset@@QAE_NPBD@Z
?setBackgroundFetch@CRsdRecordset@@QAEX_N@Z
?setBlobFilename@CRsdField@@QAEXPAD@Z
?setBlobFilename@CRsdParameter@@QAEXPAD@Z
?setBlobLimitSize@CRsdRecordset@@QAEXH@Z
?setBlockSize@CRsdCommand@@QAEXJ@Z
?setCachingFind@CRsdRecordset@@QAEX_N@Z
?setClientEncoding@CRsdCommand@@QAEXW4RSDEncoding_t@@@Z
?setClientEncoding@CRsdEncBase@@QAEXW4RSDEncoding_t@@@Z
?setClientEncoding@CRsdRecordset@@QAEXW4RSDEncoding_t@@@Z
?setCmdText@CRsdCommand@@QAE_NPBD@Z
?setCmdType@CRsdCommand@@QAE_NW4CmdType_t@@@Z
?setCommand@CRsdRecordset@@QAEXPAVCRsdCommand@@@Z
?setConString@CRsdConnection@@QAEXPBD@Z
?setConnection@CRsdCommand@@QAE_NPAVCRsdConnection@@@Z
?setCursorLocation@CRsdRecordset@@QAEXW4RSDCursorLocation_t@@@Z
?setCursorLocationMulti@CRsdRecordset@@IAEXW4RSDCursorLocation_t@@@Z
?setCursorType@CRsdCommand@@QAE_NW4RSDCursorType_t@@@Z
?setCursorType@CRsdRecordset@@QAEXW4RSDCursorType_t@@@Z
?setCursorTypeMulti@CRsdRecordset@@IAEXW4RSDCursorType_t@@@Z
?setCustomConString@CRsdConnection@@QAEXPBD@Z
?setDepFields@CRsdRecordset@@QAEXPBD@Z
?setDepTables@CRsdRecordset@@QAEXPBD@Z
?setDirection@CRsdParameter@@QAEXW4RSDBindParamIO_t@@@Z
?setDriver@CRsdEnvironment@@QAEXPBD@Z
?setEmptyQuery@CRsdRecordset@@QAEX_N@Z
?setEnvironment@CRsdConnection@@QAEXPAVCRsdEnvironment@@@Z
?setErrSink@CRsdEnvironment@@QAEXPAUtagRSDErrorSink@@@Z
?setFilter@CRsdRecordset@@QAEXH@Z
?setFilter@CRsdRecordset@@QAEXPBD@Z
?setFullShiftMode@CRsdRecordset@@QAEXH@Z
?setIndex@?$CRsdFldBase@UtagIRSCmd@@PAURSDHCM__@@VCRsdCommand@@@@MAEHH@Z
?setIndex@?$CRsdFldBase@UtagIRSRecordSet@@PAURSDHRS__@@VCRsdRecordset@@@@MAEHH@Z
?setIndex@CRsdFieldNumber10@@MAEHH@Z
?setJoinCond@CRsdRecordset@@QAEXPBD@Z
?setKeyDef@CRsdRecordset@@QAEXPAPAUtagRSDRSNAMEBINDING@@@Z
?setLibrary@CRsdEnvironment@@QAEXPBD@Z
?setLockState@CRsdRecordset@@IAEXXZ
?setLockType@CRsdRecordset@@QAEXH@Z
?setMaxPages@CRsdRecordset@@QAEXJ@Z
?setModified@?$CRsdFldBase@UtagIRSCmd@@PAURSDHCM__@@VCRsdCommand@@@@UAEX_N@Z
?setModified@?$CRsdFldBase@UtagIRSRecordSet@@PAURSDHRS__@@VCRsdRecordset@@@@UAEX_N@Z
?setModified@CRsdFieldNumber10@@UAEX_N@Z
?setNull@?$CRsdFldBase@UtagIRSCmd@@PAURSDHCM__@@VCRsdCommand@@@@UAEXXZ
?setNull@?$CRsdFldBase@UtagIRSRecordSet@@PAURSDHRS__@@VCRsdRecordset@@@@UAEXXZ
?setNull@CRsdFieldNumber10@@UAEXXZ
?setNullConversion@CRsdCommand@@QAEX_N@Z
?setNullConversion@CRsdRecordset@@QAEX_N@Z
?setOptions@CRsdCommand@@QAE_NJ@Z
?setOrderAccessor@CRsdCommand@@QAEXPAVCRsdNameAccessor@@@Z
?setPageSize@CRsdRecordset@@QAEXJ@Z
?setParamAccessor@CRsdCommand@@QAEXPAVCRsdParamAccessor@@I@Z
?setParamArraySize@CRsdCommand@@QAEXI@Z
?setPassword@CRsdConnection@@QAEXPBD@Z
?setPrepared@CRsdCommand@@QAE_N_N@Z
?setPrimaryKey@CRsdRecordset@@QAEXPAUtagRSDRSNAMEBINDING@@@Z
?setReadOnly@?$CRsdFldBase@UtagIRSCmd@@PAURSDHCM__@@VCRsdCommand@@@@UAEX_N@Z
?setReadOnly@?$CRsdFldBase@UtagIRSRecordSet@@PAURSDHRS__@@VCRsdRecordset@@@@UAEX_N@Z
?setReadOnly@CRsdFieldNumber10@@UAEX_N@Z
?setRecDef@CRsdRecordset@@QAEXPAUtagRSDRSNAMEBINDING@@@Z
?setRepairUpdatedCacheFieldsNullData@CRsdRecordset@@QAEX_N@Z
?setSequenceName@CRsdRecordset@@QAEXPBD@Z
?setServerEncoding@CRsdEncBase@@QAEXW4RSDEncoding_t@@@Z
?setSort@CRsdRecordset@@QAEXPBD@Z
?setSortString@CRsdRecordset@@QAEXPBD@Z
?setSpecField@CRsdRecordset@@QAE_NJH@Z
?setStatus@?$CRsdFldBase@UtagIRSCmd@@PAURSDHCM__@@VCRsdCommand@@@@UAEXJ@Z
?setStatus@?$CRsdFldBase@UtagIRSRecordSet@@PAURSDHRS__@@VCRsdRecordset@@@@UAEXJ@Z
?setStatus@CRsdFieldNumber10@@UAEXJ@Z
?setTableName@CRsdRecordset@@QAEXPAD@Z
?setTimeout@CRsdCommand@@QAE_NJ@Z
?setTimeout@CRsdConnection@@QAEXJ@Z
?setToolsWhereCond@CRsdRecordset@@QAEXPBD@Z
?setUser@CRsdConnection@@QAEXPBD@Z
?setUserCmd@CRsdRecordset@@QAEXPAVCRsdCommand@@W4RSDCmdType_RSet_t@@@Z
?setVal@?$CRsdFldBase@UtagIRSCmd@@PAURSDHCM__@@VCRsdCommand@@@@QAEXD@Z
?setVal@?$CRsdFldBase@UtagIRSCmd@@PAURSDHCM__@@VCRsdCommand@@@@QAEXE@Z
?setVal@?$CRsdFldBase@UtagIRSCmd@@PAURSDHCM__@@VCRsdCommand@@@@QAEXF@Z
?setVal@?$CRsdFldBase@UtagIRSCmd@@PAURSDHCM__@@VCRsdCommand@@@@QAEXG@Z
?setVal@?$CRsdFldBase@UtagIRSCmd@@PAURSDHCM__@@VCRsdCommand@@@@QAEXJ@Z
?setVal@?$CRsdFldBase@UtagIRSCmd@@PAURSDHCM__@@VCRsdCommand@@@@QAEXK@Z
?setVal@?$CRsdFldBase@UtagIRSCmd@@PAURSDHCM__@@VCRsdCommand@@@@QAEXM@Z
?setVal@?$CRsdFldBase@UtagIRSCmd@@PAURSDHCM__@@VCRsdCommand@@@@QAEXN@Z
?setVal@?$CRsdFldBase@UtagIRSCmd@@PAURSDHCM__@@VCRsdCommand@@@@QAEXPAD@Z
?setVal@?$CRsdFldBase@UtagIRSCmd@@PAURSDHCM__@@VCRsdCommand@@@@QAEXPAXJ@Z
?setVal@?$CRsdFldBase@UtagIRSCmd@@PAURSDHCM__@@VCRsdCommand@@@@QAEXPA_W@Z
?setVal@?$CRsdFldBase@UtagIRSCmd@@PAURSDHCM__@@VCRsdCommand@@@@QAEXUFDecimal_t@@@Z
?setVal@?$CRsdFldBase@UtagIRSCmd@@PAURSDHCM__@@VCRsdCommand@@@@QAEXUNumeric96_t@@@Z
?setVal@?$CRsdFldBase@UtagIRSCmd@@PAURSDHCM__@@VCRsdCommand@@@@QAEXUbdate@@@Z
?setVal@?$CRsdFldBase@UtagIRSCmd@@PAURSDHCM__@@VCRsdCommand@@@@QAEXUbtime@@@Z
?setVal@?$CRsdFldBase@UtagIRSCmd@@PAURSDHCM__@@VCRsdCommand@@@@QAEXUbtimestamp@@@Z
?setVal@?$CRsdFldBase@UtagIRSCmd@@PAURSDHCM__@@VCRsdCommand@@@@QAEX_J@Z
?setVal@?$CRsdFldBase@UtagIRSCmd@@PAURSDHCM__@@VCRsdCommand@@@@QAEX_K@Z
?setVal@?$CRsdFldBase@UtagIRSCmd@@PAURSDHCM__@@VCRsdCommand@@@@QAEX_N@Z
?setVal@?$CRsdFldBase@UtagIRSRecordSet@@PAURSDHRS__@@VCRsdRecordset@@@@QAEXD@Z
?setVal@?$CRsdFldBase@UtagIRSRecordSet@@PAURSDHRS__@@VCRsdRecordset@@@@QAEXE@Z
?setVal@?$CRsdFldBase@UtagIRSRecordSet@@PAURSDHRS__@@VCRsdRecordset@@@@QAEXF@Z
?setVal@?$CRsdFldBase@UtagIRSRecordSet@@PAURSDHRS__@@VCRsdRecordset@@@@QAEXG@Z
?setVal@?$CRsdFldBase@UtagIRSRecordSet@@PAURSDHRS__@@VCRsdRecordset@@@@QAEXJ@Z
?setVal@?$CRsdFldBase@UtagIRSRecordSet@@PAURSDHRS__@@VCRsdRecordset@@@@QAEXK@Z
?setVal@?$CRsdFldBase@UtagIRSRecordSet@@PAURSDHRS__@@VCRsdRecordset@@@@QAEXM@Z
?setVal@?$CRsdFldBase@UtagIRSRecordSet@@PAURSDHRS__@@VCRsdRecordset@@@@QAEXN@Z
?setVal@?$CRsdFldBase@UtagIRSRecordSet@@PAURSDHRS__@@VCRsdRecordset@@@@QAEXPAD@Z
?setVal@?$CRsdFldBase@UtagIRSRecordSet@@PAURSDHRS__@@VCRsdRecordset@@@@QAEXPAXJ@Z
?setVal@?$CRsdFldBase@UtagIRSRecordSet@@PAURSDHRS__@@VCRsdRecordset@@@@QAEXPA_W@Z
?setVal@?$CRsdFldBase@UtagIRSRecordSet@@PAURSDHRS__@@VCRsdRecordset@@@@QAEXUFDecimal_t@@@Z
?setVal@?$CRsdFldBase@UtagIRSRecordSet@@PAURSDHRS__@@VCRsdRecordset@@@@QAEXUNumeric96_t@@@Z
?setVal@?$CRsdFldBase@UtagIRSRecordSet@@PAURSDHRS__@@VCRsdRecordset@@@@QAEXUbdate@@@Z
?setVal@?$CRsdFldBase@UtagIRSRecordSet@@PAURSDHRS__@@VCRsdRecordset@@@@QAEXUbtime@@@Z
?setVal@?$CRsdFldBase@UtagIRSRecordSet@@PAURSDHRS__@@VCRsdRecordset@@@@QAEXUbtimestamp@@@Z
?setVal@?$CRsdFldBase@UtagIRSRecordSet@@PAURSDHRS__@@VCRsdRecordset@@@@QAEX_J@Z
?setVal@?$CRsdFldBase@UtagIRSRecordSet@@PAURSDHRS__@@VCRsdRecordset@@@@QAEX_K@Z
?setVal@?$CRsdFldBase@UtagIRSRecordSet@@PAURSDHRS__@@VCRsdRecordset@@@@QAEX_N@Z
?setValName@CRsdParameter@@QAEXPBD@Z
?setValueLen@?$CRsdFldBase@UtagIRSCmd@@PAURSDHCM__@@VCRsdCommand@@@@UAEXJ@Z
?setValueLen@?$CRsdFldBase@UtagIRSRecordSet@@PAURSDHRS__@@VCRsdRecordset@@@@UAEXJ@Z
?setValueLen@CRsdFieldNumber10@@UAEXJ@Z
?setVersion@CRsdParameter@@QAEXW4RSDBindParamVer_t@@@Z
?setWhereAccessor@CRsdCommand@@QAEXPAVCRsdNameAccessor@@@Z
?setWhereCond@CRsdRecordset@@QAEXPBD@Z
?synchronize@CRsdFieldNumber10@@IBEXXZ
?updateAccessor@CRsdRecordset@@QAE_NPAVCRsdAccessor@@@Z
?updateAccessors@CRsdRecordset@@QAEX_N@Z
?write@CRsdField@@QAEJPAXJ@Z
GetRsIntf
